target datalayout = "e-m:e-p270:32:32-p271:32:32-p272:64:64-i64:64-i128:128-f80:128-n8:16:32:64-S128"
target triple = "x86_64-pc-linux-gnu"

%struct._generic_N_Vector = type { ptr, ptr, ptr }
%struct._N_VectorContent_Serial = type { i64, i32, ptr }

@stdout = external global ptr, align 8
@stderr = external global ptr, align 8
@.str.34 = private unnamed_addr constant [47 x i8] c"\0ASUNDIALS_ERROR: check_ans failed - ewt <= 0\0A\0A\00", align 1
@.str.35 = private unnamed_addr constant [40 x i8] c"\0ASUNDIALS_WARNING: check_ans error=%g\0A\0A\00", align 1

; Function Attrs: nounwind uwtable
define internal i32 @check_ans(ptr noundef %0, double noundef %1, double noundef %2, ptr noundef %3) #0 {
  %5 = alloca i32, align 4
  %6 = alloca ptr, align 8
  %7 = alloca double, align 8
  %8 = alloca double, align 8
  %9 = alloca ptr, align 8
  %10 = alloca i32, align 4
  %11 = alloca ptr, align 8
  %12 = alloca ptr, align 8
  %13 = alloca double, align 8
  %14 = alloca i32, align 4
  store ptr %0, ptr %6, align 8, !tbaa !8
  store double %1, ptr %7, align 8, !tbaa !22
  store double %2, ptr %8, align 8, !tbaa !22
  store ptr %3, ptr %9, align 8, !tbaa !8
  call void @llvm.lifetime.start.p0(i64 4, ptr %10) #5
  store i32 0, ptr %10, align 4, !tbaa !18
  call void @llvm.lifetime.start.p0(i64 8, ptr %11) #5
  call void @llvm.lifetime.start.p0(i64 8, ptr %12) #5
  call void @llvm.lifetime.start.p0(i64 8, ptr %13) #5
  %15 = load ptr, ptr %6, align 8, !tbaa !8
  %16 = call ptr @N_VClone(ptr noundef %15)
  store ptr %16, ptr %11, align 8, !tbaa !8
  %17 = load ptr, ptr %6, align 8, !tbaa !8
  %18 = call ptr @N_VClone(ptr noundef %17)
  store ptr %18, ptr %12, align 8, !tbaa !8
  %19 = load ptr, ptr %11, align 8, !tbaa !8
  %20 = getelementptr inbounds nuw %struct._generic_N_Vector, ptr %19, i32 0, i32 0
  %21 = load ptr, ptr %20, align 8, !tbaa !38
  %22 = getelementptr inbounds nuw %struct._N_VectorContent_Serial, ptr %21, i32 0, i32 2
  %23 = load ptr, ptr %22, align 8, !tbaa !41
  %24 = getelementptr inbounds double, ptr %23, i64 0
  store double 0x3E6BF64C567623ED, ptr %24, align 8, !tbaa !22
  %25 = load ptr, ptr %11, align 8, !tbaa !8
  %26 = getelementptr inbounds nuw %struct._generic_N_Vector, ptr %25, i32 0, i32 0
  %27 = load ptr, ptr %26, align 8, !tbaa !38
  %28 = getelementptr inbounds nuw %struct._N_VectorContent_Serial, ptr %27, i32 0, i32 2
  %29 = load ptr, ptr %28, align 8, !tbaa !41
  %30 = getelementptr inbounds double, ptr %29, i64 1
  store double 0x3D4D5205238BB03E, ptr %30, align 8, !tbaa !22
  %31 = load ptr, ptr %11, align 8, !tbaa !8
  %32 = getelementptr inbounds nuw %struct._generic_N_Vector, ptr %31, i32 0, i32 0
  %33 = load ptr, ptr %32, align 8, !tbaa !38
  %34 = getelementptr inbounds nuw %struct._N_VectorContent_Serial, ptr %33, i32 0, i32 2
  %35 = load ptr, ptr %34, align 8, !tbaa !41
  %36 = getelementptr inbounds double, ptr %35, i64 2
  store double 0x3FEFFFFFE409AC56, ptr %36, align 8, !tbaa !22
  %37 = load ptr, ptr %11, align 8, !tbaa !8
  %38 = load ptr, ptr %12, align 8, !tbaa !8
  call void @N_VAbs(ptr noundef %37, ptr noundef %38)
  %39 = load double, ptr %8, align 8, !tbaa !22
  %40 = load ptr, ptr %12, align 8, !tbaa !8
  %41 = load ptr, ptr %9, align 8, !tbaa !8
  %42 = load ptr, ptr %12, align 8, !tbaa !8
  call void @N_VLinearSum(double noundef %39, ptr noundef %40, double noundef 1.000000e+01, ptr noundef %41, ptr noundef %42)
  %43 = load ptr, ptr %12, align 8, !tbaa !8
  %44 = call double @N_VMin(ptr noundef %43)
  %45 = fcmp ole double %44, 0.000000e+00
  br i1 %45, label %46, label %49

46:                                               ; preds = %4
  %47 = load ptr, ptr @stderr, align 8, !tbaa !24
  %48 = call i32 (ptr, ptr, ...) @fprintf(ptr noundef %47, ptr noundef @.str.34) #5
  store i32 -1, ptr %5, align 4
  store i32 1, ptr %14, align 4
  br label %71

49:                                               ; preds = %4
  %50 = load ptr, ptr %12, align 8, !tbaa !8
  %51 = load ptr, ptr %12, align 8, !tbaa !8
  call void @N_VInv(ptr noundef %50, ptr noundef %51)
  %52 = load ptr, ptr %6, align 8, !tbaa !8
  %53 = load ptr, ptr %11, align 8, !tbaa !8
  %54 = load ptr, ptr %11, align 8, !tbaa !8
  call void @N_VLinearSum(double noundef 1.000000e+00, ptr noundef %52, double noundef -1.000000e+00, ptr noundef %53, ptr noundef %54)
  %55 = load ptr, ptr %11, align 8, !tbaa !8
  %56 = load ptr, ptr %12, align 8, !tbaa !8
  %57 = call double @N_VWrmsNorm(ptr noundef %55, ptr noundef %56)
  store double %57, ptr %13, align 8, !tbaa !22
  %58 = load double, ptr %13, align 8, !tbaa !22
  %59 = fcmp olt double %58, 1.000000e+00
  %60 = select i1 %59, i32 0, i32 1
  store i32 %60, ptr %10, align 4, !tbaa !18
  %61 = load i32, ptr %10, align 4, !tbaa !18
  %62 = icmp ne i32 %61, 0
  br i1 %62, label %63, label %67

63:                                               ; preds = %49
  %64 = load ptr, ptr @stdout, align 8, !tbaa !24
  %65 = load double, ptr %13, align 8, !tbaa !22
  %66 = call i32 (ptr, ptr, ...) @fprintf(ptr noundef %64, ptr noundef @.str.35, double noundef %65) #5
  br label %67

67:                                               ; preds = %63, %49
  %68 = load ptr, ptr %11, align 8, !tbaa !8
  call void @N_VDestroy(ptr noundef %68)
  %69 = load ptr, ptr %12, align 8, !tbaa !8
  call void @N_VDestroy(ptr noundef %69)
  %70 = load i32, ptr %10, align 4, !tbaa !18
  store i32 %70, ptr %5, align 4
  store i32 1, ptr %14, align 4
  br label %71

71:                                               ; preds = %67, %46
  call void @llvm.lifetime.end.p0(i64 8, ptr %13) #5
  call void @llvm.lifetime.end.p0(i64 8, ptr %12) #5
  call void @llvm.lifetime.end.p0(i64 8, ptr %11) #5
  call void @llvm.lifetime.end.p0(i64 4, ptr %10) #5
  %72 = load i32, ptr %5, align 4
  ret i32 %72
}